target datalayout = "e-m:e-p270:32:32-p271:32:32-p272:64:64-i64:64-i128:128-f80:128-n8:16:32:64-S128"
target triple = "x86_64-unknown-linux-gnu"

%"class.sat::binspr" = type <{ ptr, %class.scoped_ptr.38, i32, i32, %class.vector.39, i32, i32, %class.svector.14, %class.svector.14, %class.svector.26, %class.svector.26, i32, i32, i32, i32, i32, [4 x i32], [5 x i32], [5 x i32], [4 x i8] }>
%class.scoped_ptr.38 = type { ptr }
%class.vector.39 = type { ptr }
%class.svector.14 = type { %class.vector.15 }
%class.vector.15 = type { ptr }
%class.svector.26 = type { %class.vector.27 }
%class.vector.27 = type { ptr }

; Function Attrs: mustprogress nounwind uwtable
define hidden noundef i32 @_ZN3sat6binspr7mk_maskEj(ptr noundef nonnull align 8 dereferenceable(148) %this, i32 noundef %i) #4 align 2 {
entry:
  %this.addr = alloca ptr, align 8
  %i.addr = alloca i32, align 4
  %mask0 = alloca i32, align 4
  %pos = alloca i32, align 4
  %mask = alloca i32, align 4
  store ptr %this, ptr %this.addr, align 8
  store i32 %i, ptr %i.addr, align 4
  %0 = load i32, ptr %i.addr, align 4
  %shl = shl i32 1, %0
  %shl2 = shl i32 1, %shl
  %sub = sub nsw i32 %shl2, 1
  store i32 %sub, ptr %mask0, align 4
  %1 = load i32, ptr %i.addr, align 4
  %add = add i32 %1, 1
  %shl3 = shl i32 1, %add
  store i32 %shl3, ptr %pos, align 4
  %2 = load i32, ptr %mask0, align 4
  store i32 %2, ptr %mask, align 4
  br label %while.cond

while.cond:                                       ; preds = %while.body, %entry
  %3 = load i32, ptr %pos, align 4
  %cmp = icmp ult i32 %3, 32
  br i1 %cmp, label %while.body, label %while.end

while.body:                                       ; preds = %while.cond
  %4 = load i32, ptr %mask0, align 4
  %5 = load i32, ptr %pos, align 4
  %shl4 = shl i32 %4, %5
  %6 = load i32, ptr %mask, align 4
  %or = or i32 %6, %shl4
  store i32 %or, ptr %mask, align 4
  %7 = load i32, ptr %i.addr, align 4
  %add5 = add i32 %7, 1
  %shl6 = shl i32 1, %add5
  %8 = load i32, ptr %pos, align 4
  %add7 = add i32 %8, %shl6
  store i32 %add7, ptr %pos, align 4
  br label %while.cond, !llvm.loop !12

while.end:                                        ; preds = %while.cond
  %9 = load i32, ptr %mask, align 4
  ret i32 %9
}

; Function Attrs: mustprogress nounwind uwtable
define hidden void @_ZN3sat6binspr8mk_masksEv(ptr noundef nonnull align 8 dereferenceable(148) %this) #4 align 2 {
entry:
  %this.addr = alloca ptr, align 8
  %i = alloca i32, align 4
  store ptr %this, ptr %this.addr, align 8
  %this1 = load ptr, ptr %this.addr, align 8
  store i32 0, ptr %i, align 4
  br label %for.cond

for.cond:                                         ; preds = %for.inc, %entry
  %0 = load i32, ptr %i, align 4
  %cmp = icmp ult i32 %0, 5
  br i1 %cmp, label %for.body, label %for.end

for.body:                                         ; preds = %for.cond
  %1 = load i32, ptr %i, align 4
  %call = call noundef i32 @_ZN3sat6binspr7mk_maskEj(ptr noundef nonnull align 8 dereferenceable(148) %this1, i32 noundef %1)
  %m_false = getelementptr inbounds %"class.sat::binspr", ptr %this1, i32 0, i32 18
  %2 = load i32, ptr %i, align 4
  %idxprom = zext i32 %2 to i64
  %arrayidx = getelementptr inbounds [5 x i32], ptr %m_false, i64 0, i64 %idxprom
  store i32 %call, ptr %arrayidx, align 4
  %m_false2 = getelementptr inbounds %"class.sat::binspr", ptr %this1, i32 0, i32 18
  %3 = load i32, ptr %i, align 4
  %idxprom3 = zext i32 %3 to i64
  %arrayidx4 = getelementptr inbounds [5 x i32], ptr %m_false2, i64 0, i64 %idxprom3
  %4 = load i32, ptr %arrayidx4, align 4
  %5 = load i32, ptr %i, align 4
  %shl = shl i32 1, %5
  %shl5 = shl i32 %4, %shl
  %m_true = getelementptr inbounds %"class.sat::binspr", ptr %this1, i32 0, i32 17
  %6 = load i32, ptr %i, align 4
  %idxprom6 = zext i32 %6 to i64
  %arrayidx7 = getelementptr inbounds [5 x i32], ptr %m_true, i64 0, i64 %idxprom6
  store i32 %shl5, ptr %arrayidx7, align 4
  br label %for.inc

for.inc:                                          ; preds = %for.body
  %7 = load i32, ptr %i, align 4
  %inc = add i32 %7, 1
  store i32 %inc, ptr %i, align 4
  br label %for.cond, !llvm.loop !9

for.end:                                          ; preds = %for.cond
  ret void
}