; Function Attrs: mustprogress nofree norecurse nosync nounwind memory(argmem: write) uwtable
define hidden void @_ZN3sat6binspr8mk_masksEv(ptr nocapture noundef nonnull writeonly align 8 dereferenceable(148) %this) local_unnamed_addr #6 align 2 {
entry:
  %m_false = getelementptr inbounds i8, ptr %this, i64 128
  %m_true = getelementptr inbounds i8, ptr %this, i64 108
  br label %for.body

for.body:                                         ; preds = %entry, %_ZN3sat6binspr7mk_maskEj.exit
  %indvars.iv = phi i64 [ 0, %entry ], [ %indvars.iv.next, %_ZN3sat6binspr7mk_maskEj.exit ]
  %0 = trunc i64 %indvars.iv to i32
  %shl.i = shl nuw nsw i32 1, %0
  %notmask.i = shl nsw i32 -1, %shl.i
  %sub.i = xor i32 %notmask.i, -1
  %indvars.iv.next = add nuw nsw i64 %indvars.iv, 1
  %shl3.i = shl nuw nsw i32 2, %0
  %cmp7.i.not = icmp eq i64 %indvars.iv, 4
  br i1 %cmp7.i.not, label %_ZN3sat6binspr7mk_maskEj.exit.thread, label %while.body.i

_ZN3sat6binspr7mk_maskEj.exit.thread:             ; preds = %for.body
  %arrayidx10 = getelementptr inbounds [5 x i32], ptr %m_false, i64 0, i64 %indvars.iv
  store i32 %sub.i, ptr %arrayidx10, align 8
  %arrayidx712 = getelementptr inbounds [5 x i32], ptr %m_true, i64 0, i64 %indvars.iv
  store i32 -65536, ptr %arrayidx712, align 4
  br label %for.end

while.body.i:                                     ; preds = %for.body, %while.body.i
  %mask.09.i = phi i32 [ %or.i, %while.body.i ], [ %sub.i, %for.body ]
  %pos.08.i = phi i32 [ %add7.i, %while.body.i ], [ %shl3.i, %for.body ]
  %shl4.i = shl i32 %sub.i, %pos.08.i
  %or.i = or i32 %shl4.i, %mask.09.i
  %add7.i = add nuw i32 %pos.08.i, %shl3.i
  %cmp.i = icmp ult i32 %add7.i, 32
  br i1 %cmp.i, label %while.body.i, label %_ZN3sat6binspr7mk_maskEj.exit, !llvm.loop !11

_ZN3sat6binspr7mk_maskEj.exit:                    ; preds = %while.body.i
  %arrayidx = getelementptr inbounds [5 x i32], ptr %m_false, i64 0, i64 %indvars.iv
  store i32 %or.i, ptr %arrayidx, align 4
  %shl5 = shl i32 %or.i, %shl.i
  %arrayidx7 = getelementptr inbounds [5 x i32], ptr %m_true, i64 0, i64 %indvars.iv
  store i32 %shl5, ptr %arrayidx7, align 4
  %exitcond.not = icmp eq i64 %indvars.iv.next, 5
  br i1 %exitcond.not, label %for.end, label %for.body, !llvm.loop !17

for.end:                                          ; preds = %_ZN3sat6binspr7mk_maskEj.exit, %_ZN3sat6binspr7mk_maskEj.exit.thread
  ret void
}